(lp1
(dp2
S'alpha'
p3
cnumpy.core.multiarray
scalar
p4
(cnumpy
dtype
p5
(S'f8'
I0
I1
tRp6
(I3
S'<'
NNNI-1
I-1
I0
tbS'\xfc\xa9\xf1\xd2MbP?'
tRp7
sS'lmbda'
p8
g4
(g5
(S'i8'
I0
I1
tRp9
(I3
S'<'
NNNI-1
I-1
I0
tbS'\x00\x00\x00\x00\x00\x00\x00\x00'
tRp10
sa.